Archive member included because of file (symbol)

/media/DATA/programovani/C_mikrokontroler/lpc_board/build/lpceurobot/_compiled/lib/libeurobothw.a(error.o)
                              /media/DATA/programovani/C_mikrokontroler/lpc_board/build/lpceurobot/_compiled/lib/hwinit.o (error)
/media/DATA/programovani/C_mikrokontroler/lpc_board/build/lpceurobot/_compiled/lib/libeurobothw.a(startcfg.o)
                              /media/DATA/programovani/C_mikrokontroler/lpc_board/build/lpceurobot/_compiled/lib/hwinit.o (init_PLL)
/media/DATA/programovani/C_mikrokontroler/lpc_board/build/lpceurobot/_compiled/lib/libcan.a(can.o)
                              main.o (can_tx_msg)
/media/DATA/programovani/C_mikrokontroler/lpc_board/build/lpceurobot/_compiled/lib/libcan.a(can_baud.o)
                              main.o (can_init_baudrate)
/media/DATA/programovani/C_mikrokontroler/lpc_board/build/lpceurobot/_compiled/lib/libebb.a(adc.o)
                              main.o (init_adc)
/media/DATA/programovani/C_mikrokontroler/lpc_board/build/lpceurobot/_compiled/lib/libebb.a(engine.o)
                              fsm_vidle.o (engine_A_en)
/media/DATA/programovani/C_mikrokontroler/lpc_board/build/lpceurobot/_compiled/lib/libebb.a(uart.o)
                              uar.o (init_uart0)
/usr/arm-elf/gcc/4.4.3/bin/../lib/gcc/arm-elf/4.4.3/libgcc.a(_udivsi3.o)
                              /media/DATA/programovani/C_mikrokontroler/lpc_board/build/lpceurobot/_compiled/lib/libcan.a(can_baud.o) (__udivsi3)
/usr/arm-elf/gcc/4.4.3/bin/../lib/gcc/arm-elf/4.4.3/libgcc.a(_divsi3.o)
                              /media/DATA/programovani/C_mikrokontroler/lpc_board/build/lpceurobot/_compiled/lib/libeurobothw.a(startcfg.o) (__divsi3)
/usr/arm-elf/gcc/4.4.3/bin/../lib/gcc/arm-elf/4.4.3/libgcc.a(_dvmd_tls.o)
                              /usr/arm-elf/gcc/4.4.3/bin/../lib/gcc/arm-elf/4.4.3/libgcc.a(_udivsi3.o) (__div0)
/usr/arm-elf/gcc/4.4.3/bin/../lib/gcc/arm-elf/4.4.3/../../../../arm-elf/lib/libg.a(lib_a-memcpy.o)
                              /media/DATA/programovani/C_mikrokontroler/lpc_board/build/lpceurobot/_compiled/lib/libcan.a(can.o) (memcpy)
/usr/arm-elf/gcc/4.4.3/bin/../lib/gcc/arm-elf/4.4.3/../../../../arm-elf/lib/libg.a(lib_a-memset.o)
                              main.o (memset)

Allocating common symbols
Common symbol       size              file

adc_val             0x10              fsm_vidle.o
can_rx_cb           0x4               main.o
can_rx_msg          0x14              /media/DATA/programovani/C_mikrokontroler/lpc_board/build/lpceurobot/_compiled/lib/libcan.a(can.o)
cpu_ref_hz          0x4               fsm_vidle.o
cpu_sys_hz          0x4               fsm_vidle.o
msec_time           0x4               fsm_vidle.o
fsm_vidle           0x34              main.o

Memory Configuration

Name             Origin             Length             Attributes
FLASH            0x0000000000000000 0x000000000003e000 xr
RAM              0x0000000040000000 0x0000000000004000 rw
*default*        0x0000000000000000 0xffffffffffffffff

Linker script and memory map

LOAD /media/DATA/programovani/C_mikrokontroler/lpc_board/build/lpceurobot/_compiled/lib/crt0.o
LOAD /media/DATA/programovani/C_mikrokontroler/lpc_board/build/lpceurobot/_compiled/lib/initarray.o
LOAD /media/DATA/programovani/C_mikrokontroler/lpc_board/build/lpceurobot/_compiled/lib/hwinit.o
                0x0000000000000400                STACK_SIZE = 0x400

.ivec           0x0000000000000000       0x40
 *(.ivec)
 .ivec          0x0000000000000000       0x40 /media/DATA/programovani/C_mikrokontroler/lpc_board/build/lpceurobot/_compiled/lib/crt0.o
                0x0000000000000000                _boot

.text           0x0000000000000040     0x1f3c
 *crt0.o(.text)
 .text          0x0000000000000040      0x114 /media/DATA/programovani/C_mikrokontroler/lpc_board/build/lpceurobot/_compiled/lib/crt0.o
                0x0000000000000040                _mainCRTStartup
                0x0000000000000040                _start
                0x0000000000000040                start
                0x0000000000000124                reset
                0x0000000000000124                abort
                0x0000000000000124                _reset
                0x0000000000000124                exit
 *(.text)
 .text          0x0000000000000154       0x3c /media/DATA/programovani/C_mikrokontroler/lpc_board/build/lpceurobot/_compiled/lib/initarray.o
                0x0000000000000154                __libc_init_array
 .text          0x0000000000000190       0x80 /media/DATA/programovani/C_mikrokontroler/lpc_board/build/lpceurobot/_compiled/lib/hwinit.o
                0x0000000000000190                __hardware_init
 .text          0x0000000000000210       0x68 fsm.o
                0x0000000000000210                init_fsm
                0x000000000000022c                run_fsm
 .text          0x0000000000000278      0x348 fsm_vidle.o
                0x0000000000000278                fsm_vidle_init
 .text          0x00000000000005c0      0x6bc main.o
                0x00000000000005c0                set_irq_handler
                0x00000000000005ec                init_timer0
                0x0000000000000628                timer0_irq
                0x0000000000000688                CAN_rx
                0x0000000000000714                blink_led
                0x0000000000000788                test_vhn
                0x00000000000007fc                handle_bumper
                0x00000000000008f4                can_send_status
                0x0000000000000954                start_button
                0x0000000000000a00                dbg_print_time
                0x0000000000000a80                init_motors
                0x0000000000000aa4                init_periphery
                0x0000000000000b30                main
 .text          0x0000000000000c7c      0x11c uar.o
                0x0000000000000c7c                init_uart
                0x0000000000000ca8                uart_get_char
                0x0000000000000cac                uart_send_char
                0x0000000000000cb4                send_rs_int
                0x0000000000000d4c                send_rs_str
 .text          0x0000000000000d98      0x108 vhn.o
                0x0000000000000d98                vhn_reset
                0x0000000000000df4                vhn_speed
                0x0000000000000e68                vhn_init
 .text          0x0000000000000ea0       0x48 /media/DATA/programovani/C_mikrokontroler/lpc_board/build/lpceurobot/_compiled/lib/libeurobothw.a(error.o)
                0x0000000000000ea0                error
 .text          0x0000000000000ee8      0x3bc /media/DATA/programovani/C_mikrokontroler/lpc_board/build/lpceurobot/_compiled/lib/libeurobothw.a(startcfg.o)
                0x0000000000000ee8                wait
                0x0000000000000eec                deb_led
                0x0000000000000fa8                init_PLL
                0x0000000000001118                get_sys_speed
                0x0000000000001160                init_MAM
                0x0000000000001204                set_APB
                0x000000000000121c                get_apb_speed
 .text          0x00000000000012a4      0x20c /media/DATA/programovani/C_mikrokontroler/lpc_board/build/lpceurobot/_compiled/lib/libcan.a(can.o)
                0x00000000000012a4                can_init
                0x0000000000001348                can_off
                0x0000000000001384                can_tx_msg
                0x00000000000013fc                can_rx_isr
 .text          0x00000000000014b0      0x160 /media/DATA/programovani/C_mikrokontroler/lpc_board/build/lpceurobot/_compiled/lib/libcan.a(can_baud.o)
                0x00000000000014b0                can_init_baudrate
 .text          0x0000000000001610      0x12c /media/DATA/programovani/C_mikrokontroler/lpc_board/build/lpceurobot/_compiled/lib/libebb.a(adc.o)
                0x0000000000001610                adc_isr
                0x00000000000016ec                init_adc
 .text          0x000000000000173c      0x370 /media/DATA/programovani/C_mikrokontroler/lpc_board/build/lpceurobot/_compiled/lib/libebb.a(engine.o)
                0x000000000000173c                engine_A_en
                0x000000000000176c                engine_B_en
                0x000000000000179c                engine_A_dir
                0x000000000000182c                engine_B_dir
                0x00000000000018bc                engine_A_pwm
                0x000000000000191c                engine_B_pwm
                0x000000000000197c                init_engine_A
                0x0000000000001a14                init_engine_B
 .text          0x0000000000001aac      0x238 /media/DATA/programovani/C_mikrokontroler/lpc_board/build/lpceurobot/_compiled/lib/libebb.a(uart.o)
                0x0000000000001aac                init_uart0
                0x0000000000001b7c                uart1GetCh
                0x0000000000001ba0                uart0GetCh
                0x0000000000001bc4                uart1SendCh
                0x0000000000001bec                uart0SendCh
                0x0000000000001c14                init_uart1
 .text          0x0000000000001ce4      0x110 /usr/arm-elf/gcc/4.4.3/bin/../lib/gcc/arm-elf/4.4.3/libgcc.a(_udivsi3.o)
                0x0000000000001ce4                __udivsi3
                0x0000000000001ce4                __aeabi_uidiv
                0x0000000000001ddc                __aeabi_uidivmod
 .text          0x0000000000001df4      0x140 /usr/arm-elf/gcc/4.4.3/bin/../lib/gcc/arm-elf/4.4.3/libgcc.a(_divsi3.o)
                0x0000000000001df4                __aeabi_idiv
                0x0000000000001df4                __divsi3
                0x0000000000001f1c                __aeabi_idivmod
 .text          0x0000000000001f34        0x4 /usr/arm-elf/gcc/4.4.3/bin/../lib/gcc/arm-elf/4.4.3/libgcc.a(_dvmd_tls.o)
                0x0000000000001f34                __aeabi_ldiv0
                0x0000000000001f34                __div0
                0x0000000000001f34                __aeabi_idiv0
 .text          0x0000000000001f38       0x24 /usr/arm-elf/gcc/4.4.3/bin/../lib/gcc/arm-elf/4.4.3/../../../../arm-elf/lib/libg.a(lib_a-memcpy.o)
                0x0000000000001f38                memcpy
 .text          0x0000000000001f5c       0x20 /usr/arm-elf/gcc/4.4.3/bin/../lib/gcc/arm-elf/4.4.3/../../../../arm-elf/lib/libg.a(lib_a-memset.o)
                0x0000000000001f5c                memset
 *(.glue_7)
 .glue_7        0x0000000000000000        0x0 linker stubs
 *(.glue_7t)
 .glue_7t       0x0000000000000000        0x0 linker stubs
                0x0000000000001f7c                . = ALIGN (0x4)
                0x0000000000001f7c                _etext = .

.vfp11_veneer   0x0000000000001f7c        0x0
 .vfp11_veneer  0x0000000000000000        0x0 linker stubs

.v4_bx          0x0000000000001f7c        0x0
 .v4_bx         0x0000000000000000        0x0 linker stubs

.rodata         0x0000000000001f7c       0x58
 *(.rodata)
 .rodata        0x0000000000001f7c       0x28 fsm_vidle.o
 *(.rodata*)
 .rodata.str1.4
                0x0000000000001fa4        0x9 fsm_vidle.o
                                          0xc (size before relaxing)
 *fill*         0x0000000000001fad        0x3 00
 .rodata.str1.4
                0x0000000000001fb0       0x24 main.o
                0x0000000000001fd4                . = ALIGN (0x4)
                0x0000000000001fd4                PROVIDE (__init_array_start, .)

.init_array     0x0000000000001fd4        0x4
 *(.init_array)
 .init_array    0x0000000000001fd4        0x4 /media/DATA/programovani/C_mikrokontroler/lpc_board/build/lpceurobot/_compiled/lib/hwinit.o
                0x0000000000001fd4                fp
                0x0000000000001fd8                . = ALIGN (0x4)
                0x0000000000001fd8                PROVIDE (__init_array_end, .)
                0x0000000000001fd8                _datainit = LOADADDR (.data)

.data           0x0000000040000000        0x0 load address 0x0000000000001fd8
                0x0000000040000000                _data = .
 *(.data)
 .data          0x0000000040000000        0x0 /media/DATA/programovani/C_mikrokontroler/lpc_board/build/lpceurobot/_compiled/lib/crt0.o
 .data          0x0000000040000000        0x0 /media/DATA/programovani/C_mikrokontroler/lpc_board/build/lpceurobot/_compiled/lib/initarray.o
 .data          0x0000000040000000        0x0 /media/DATA/programovani/C_mikrokontroler/lpc_board/build/lpceurobot/_compiled/lib/hwinit.o
 .data          0x0000000040000000        0x0 fsm.o
 .data          0x0000000040000000        0x0 fsm_vidle.o
 .data          0x0000000040000000        0x0 main.o
 .data          0x0000000040000000        0x0 uar.o
 .data          0x0000000040000000        0x0 vhn.o
 .data          0x0000000040000000        0x0 /media/DATA/programovani/C_mikrokontroler/lpc_board/build/lpceurobot/_compiled/lib/libeurobothw.a(error.o)
 .data          0x0000000040000000        0x0 /media/DATA/programovani/C_mikrokontroler/lpc_board/build/lpceurobot/_compiled/lib/libeurobothw.a(startcfg.o)
 .data          0x0000000040000000        0x0 /media/DATA/programovani/C_mikrokontroler/lpc_board/build/lpceurobot/_compiled/lib/libcan.a(can.o)
 .data          0x0000000040000000        0x0 /media/DATA/programovani/C_mikrokontroler/lpc_board/build/lpceurobot/_compiled/lib/libcan.a(can_baud.o)
 .data          0x0000000040000000        0x0 /media/DATA/programovani/C_mikrokontroler/lpc_board/build/lpceurobot/_compiled/lib/libebb.a(adc.o)
 .data          0x0000000040000000        0x0 /media/DATA/programovani/C_mikrokontroler/lpc_board/build/lpceurobot/_compiled/lib/libebb.a(engine.o)
 .data          0x0000000040000000        0x0 /media/DATA/programovani/C_mikrokontroler/lpc_board/build/lpceurobot/_compiled/lib/libebb.a(uart.o)
 .data          0x0000000040000000        0x0 /usr/arm-elf/gcc/4.4.3/bin/../lib/gcc/arm-elf/4.4.3/libgcc.a(_udivsi3.o)
 .data          0x0000000040000000        0x0 /usr/arm-elf/gcc/4.4.3/bin/../lib/gcc/arm-elf/4.4.3/libgcc.a(_divsi3.o)
 .data          0x0000000040000000        0x0 /usr/arm-elf/gcc/4.4.3/bin/../lib/gcc/arm-elf/4.4.3/libgcc.a(_dvmd_tls.o)
 .data          0x0000000040000000        0x0 /usr/arm-elf/gcc/4.4.3/bin/../lib/gcc/arm-elf/4.4.3/../../../../arm-elf/lib/libg.a(lib_a-memcpy.o)
 .data          0x0000000040000000        0x0 /usr/arm-elf/gcc/4.4.3/bin/../lib/gcc/arm-elf/4.4.3/../../../../arm-elf/lib/libg.a(lib_a-memset.o)
                0x0000000040000000                . = ALIGN (0x4)
                0x0000000040000000                _edata = .

.bss            0x0000000040000000       0x9c load address 0x0000000000001fd8
                0x0000000040000000                __bss_start = .
                0x0000000040000000                __bss_start__ = .
 *(.bss)
 .bss           0x0000000040000000        0x0 /media/DATA/programovani/C_mikrokontroler/lpc_board/build/lpceurobot/_compiled/lib/crt0.o
 .bss           0x0000000040000000        0x0 /media/DATA/programovani/C_mikrokontroler/lpc_board/build/lpceurobot/_compiled/lib/initarray.o
 .bss           0x0000000040000000        0x0 /media/DATA/programovani/C_mikrokontroler/lpc_board/build/lpceurobot/_compiled/lib/hwinit.o
 .bss           0x0000000040000000        0x0 fsm.o
 .bss           0x0000000040000000        0x8 fsm_vidle.o
 .bss           0x0000000040000008       0x20 main.o
                0x0000000040000008                timer_usec
                0x0000000040000010                timer_msec
 .bss           0x0000000040000028        0x0 uar.o
 .bss           0x0000000040000028        0x0 vhn.o
 .bss           0x0000000040000028        0x0 /media/DATA/programovani/C_mikrokontroler/lpc_board/build/lpceurobot/_compiled/lib/libeurobothw.a(error.o)
 .bss           0x0000000040000028        0x0 /media/DATA/programovani/C_mikrokontroler/lpc_board/build/lpceurobot/_compiled/lib/libeurobothw.a(startcfg.o)
 .bss           0x0000000040000028        0x4 /media/DATA/programovani/C_mikrokontroler/lpc_board/build/lpceurobot/_compiled/lib/libcan.a(can.o)
                0x0000000040000028                can_msg_received
 .bss           0x000000004000002c        0x0 /media/DATA/programovani/C_mikrokontroler/lpc_board/build/lpceurobot/_compiled/lib/libcan.a(can_baud.o)
 .bss           0x000000004000002c        0x0 /media/DATA/programovani/C_mikrokontroler/lpc_board/build/lpceurobot/_compiled/lib/libebb.a(adc.o)
 .bss           0x000000004000002c        0x8 /media/DATA/programovani/C_mikrokontroler/lpc_board/build/lpceurobot/_compiled/lib/libebb.a(engine.o)
                0x000000004000002c                pwm_A
                0x0000000040000030                pwm_B
 .bss           0x0000000040000034        0x0 /media/DATA/programovani/C_mikrokontroler/lpc_board/build/lpceurobot/_compiled/lib/libebb.a(uart.o)
 .bss           0x0000000040000034        0x0 /usr/arm-elf/gcc/4.4.3/bin/../lib/gcc/arm-elf/4.4.3/libgcc.a(_udivsi3.o)
 .bss           0x0000000040000034        0x0 /usr/arm-elf/gcc/4.4.3/bin/../lib/gcc/arm-elf/4.4.3/libgcc.a(_divsi3.o)
 .bss           0x0000000040000034        0x0 /usr/arm-elf/gcc/4.4.3/bin/../lib/gcc/arm-elf/4.4.3/libgcc.a(_dvmd_tls.o)
 .bss           0x0000000040000034        0x0 /usr/arm-elf/gcc/4.4.3/bin/../lib/gcc/arm-elf/4.4.3/../../../../arm-elf/lib/libg.a(lib_a-memcpy.o)
 .bss           0x0000000040000034        0x0 /usr/arm-elf/gcc/4.4.3/bin/../lib/gcc/arm-elf/4.4.3/../../../../arm-elf/lib/libg.a(lib_a-memset.o)
 *(COMMON)
 COMMON         0x0000000040000034       0x1c fsm_vidle.o
                0x0000000040000034                adc_val
                0x0000000040000044                cpu_ref_hz
                0x0000000040000048                cpu_sys_hz
                0x000000004000004c                msec_time
 COMMON         0x0000000040000050       0x38 main.o
                0x0000000040000050                can_rx_cb
                0x0000000040000054                fsm_vidle
 COMMON         0x0000000040000088       0x14 /media/DATA/programovani/C_mikrokontroler/lpc_board/build/lpceurobot/_compiled/lib/libcan.a(can.o)
                0x0000000040000088                can_rx_msg
                0x000000004000009c                . = ALIGN (0x4)
                0x000000004000009c                __bss_end__ = .

.stack          0x000000004000009c      0x400 load address 0x0000000000001fd8
                0x000000004000049c                . = (. + STACK_SIZE)
 *fill*         0x000000004000009c      0x400 00
                0x000000004000049c                PROVIDE (_stack, .)
                0x000000004000049c                _end = .
                0x000000004000049c                PROVIDE (end, .)

.stab
 *(.stab)

.stabstr
 *(.stabstr)

.stab.excl
 *(.stab.excl)

.stab.exclstr
 *(.stab.exclstr)

.stab.index
 *(.stab.index)

.stab.indexstr
 *(.stab.indexstr)

.ARM.attributes
                0x0000000000000000       0x10
 .ARM.attributes
                0x0000000000000000       0x10 /media/DATA/programovani/C_mikrokontroler/lpc_board/build/lpceurobot/_compiled/lib/crt0.o
 .ARM.attributes
                0x0000000000000010       0x10 /media/DATA/programovani/C_mikrokontroler/lpc_board/build/lpceurobot/_compiled/lib/initarray.o
 .ARM.attributes
                0x0000000000000020       0x10 /media/DATA/programovani/C_mikrokontroler/lpc_board/build/lpceurobot/_compiled/lib/hwinit.o
 .ARM.attributes
                0x0000000000000030       0x10 fsm.o
 .ARM.attributes
                0x0000000000000040       0x10 fsm_vidle.o
 .ARM.attributes
                0x0000000000000050       0x10 main.o
 .ARM.attributes
                0x0000000000000060       0x10 uar.o
 .ARM.attributes
                0x0000000000000070       0x10 vhn.o
 .ARM.attributes
                0x0000000000000080       0x10 /media/DATA/programovani/C_mikrokontroler/lpc_board/build/lpceurobot/_compiled/lib/libeurobothw.a(error.o)
 .ARM.attributes
                0x0000000000000090       0x10 /media/DATA/programovani/C_mikrokontroler/lpc_board/build/lpceurobot/_compiled/lib/libeurobothw.a(startcfg.o)
 .ARM.attributes
                0x00000000000000a0       0x10 /media/DATA/programovani/C_mikrokontroler/lpc_board/build/lpceurobot/_compiled/lib/libcan.a(can.o)
 .ARM.attributes
                0x00000000000000b0       0x10 /media/DATA/programovani/C_mikrokontroler/lpc_board/build/lpceurobot/_compiled/lib/libcan.a(can_baud.o)
 .ARM.attributes
                0x00000000000000c0       0x10 /media/DATA/programovani/C_mikrokontroler/lpc_board/build/lpceurobot/_compiled/lib/libebb.a(adc.o)
 .ARM.attributes
                0x00000000000000d0       0x10 /media/DATA/programovani/C_mikrokontroler/lpc_board/build/lpceurobot/_compiled/lib/libebb.a(engine.o)
 .ARM.attributes
                0x00000000000000e0       0x10 /media/DATA/programovani/C_mikrokontroler/lpc_board/build/lpceurobot/_compiled/lib/libebb.a(uart.o)
 .ARM.attributes
                0x00000000000000f0       0x10 /usr/arm-elf/gcc/4.4.3/bin/../lib/gcc/arm-elf/4.4.3/libgcc.a(_udivsi3.o)
 .ARM.attributes
                0x0000000000000100       0x10 /usr/arm-elf/gcc/4.4.3/bin/../lib/gcc/arm-elf/4.4.3/libgcc.a(_divsi3.o)
 .ARM.attributes
                0x0000000000000110       0x10 /usr/arm-elf/gcc/4.4.3/bin/../lib/gcc/arm-elf/4.4.3/libgcc.a(_dvmd_tls.o)
 .ARM.attributes
                0x0000000000000120       0x10 /usr/arm-elf/gcc/4.4.3/bin/../lib/gcc/arm-elf/4.4.3/../../../../arm-elf/lib/libg.a(lib_a-memcpy.o)
 .ARM.attributes
                0x0000000000000130       0x10 /usr/arm-elf/gcc/4.4.3/bin/../lib/gcc/arm-elf/4.4.3/../../../../arm-elf/lib/libg.a(lib_a-memset.o)

.comment        0x0000000000000000       0x11
 *(.comment)
 .comment       0x0000000000000000       0x11 /media/DATA/programovani/C_mikrokontroler/lpc_board/build/lpceurobot/_compiled/lib/initarray.o
                                         0x12 (size before relaxing)
 .comment       0x0000000000000000       0x12 /media/DATA/programovani/C_mikrokontroler/lpc_board/build/lpceurobot/_compiled/lib/hwinit.o
 .comment       0x0000000000000000       0x12 fsm.o
 .comment       0x0000000000000000       0x12 fsm_vidle.o
 .comment       0x0000000000000000       0x12 main.o
 .comment       0x0000000000000000       0x12 uar.o
 .comment       0x0000000000000000       0x12 vhn.o
 .comment       0x0000000000000000       0x12 /media/DATA/programovani/C_mikrokontroler/lpc_board/build/lpceurobot/_compiled/lib/libeurobothw.a(error.o)
 .comment       0x0000000000000000       0x12 /media/DATA/programovani/C_mikrokontroler/lpc_board/build/lpceurobot/_compiled/lib/libeurobothw.a(startcfg.o)
 .comment       0x0000000000000000       0x12 /media/DATA/programovani/C_mikrokontroler/lpc_board/build/lpceurobot/_compiled/lib/libcan.a(can.o)
 .comment       0x0000000000000000       0x12 /media/DATA/programovani/C_mikrokontroler/lpc_board/build/lpceurobot/_compiled/lib/libcan.a(can_baud.o)
 .comment       0x0000000000000000       0x12 /media/DATA/programovani/C_mikrokontroler/lpc_board/build/lpceurobot/_compiled/lib/libebb.a(adc.o)
 .comment       0x0000000000000000       0x12 /media/DATA/programovani/C_mikrokontroler/lpc_board/build/lpceurobot/_compiled/lib/libebb.a(engine.o)
 .comment       0x0000000000000000       0x12 /media/DATA/programovani/C_mikrokontroler/lpc_board/build/lpceurobot/_compiled/lib/libebb.a(uart.o)
 .comment       0x0000000000000000       0x12 /usr/arm-elf/gcc/4.4.3/bin/../lib/gcc/arm-elf/4.4.3/../../../../arm-elf/lib/libg.a(lib_a-memcpy.o)
 .comment       0x0000000000000000       0x12 /usr/arm-elf/gcc/4.4.3/bin/../lib/gcc/arm-elf/4.4.3/../../../../arm-elf/lib/libg.a(lib_a-memset.o)

.debug
 *(.debug)

.line
 *(.line)

.debug_srcinfo
 *(.debug_srcinfo)

.debug_sfnames
 *(.debug_sfnames)

.debug_aranges  0x0000000000000000      0x288
 *(.debug_aranges)
 .debug_aranges
                0x0000000000000000       0x28 /media/DATA/programovani/C_mikrokontroler/lpc_board/build/lpceurobot/_compiled/lib/crt0.o
 .debug_aranges
                0x0000000000000028       0x20 /media/DATA/programovani/C_mikrokontroler/lpc_board/build/lpceurobot/_compiled/lib/initarray.o
 .debug_aranges
                0x0000000000000048       0x20 /media/DATA/programovani/C_mikrokontroler/lpc_board/build/lpceurobot/_compiled/lib/hwinit.o
 .debug_aranges
                0x0000000000000068       0x20 fsm.o
 .debug_aranges
                0x0000000000000088       0x20 fsm_vidle.o
 .debug_aranges
                0x00000000000000a8       0x20 main.o
 .debug_aranges
                0x00000000000000c8       0x20 uar.o
 .debug_aranges
                0x00000000000000e8       0x20 vhn.o
 .debug_aranges
                0x0000000000000108       0x20 /media/DATA/programovani/C_mikrokontroler/lpc_board/build/lpceurobot/_compiled/lib/libeurobothw.a(error.o)
 .debug_aranges
                0x0000000000000128       0x20 /media/DATA/programovani/C_mikrokontroler/lpc_board/build/lpceurobot/_compiled/lib/libeurobothw.a(startcfg.o)
 .debug_aranges
                0x0000000000000148       0x20 /media/DATA/programovani/C_mikrokontroler/lpc_board/build/lpceurobot/_compiled/lib/libcan.a(can.o)
 .debug_aranges
                0x0000000000000168       0x20 /media/DATA/programovani/C_mikrokontroler/lpc_board/build/lpceurobot/_compiled/lib/libcan.a(can_baud.o)
 .debug_aranges
                0x0000000000000188       0x20 /media/DATA/programovani/C_mikrokontroler/lpc_board/build/lpceurobot/_compiled/lib/libebb.a(adc.o)
 .debug_aranges
                0x00000000000001a8       0x20 /media/DATA/programovani/C_mikrokontroler/lpc_board/build/lpceurobot/_compiled/lib/libebb.a(engine.o)
 .debug_aranges
                0x00000000000001c8       0x20 /media/DATA/programovani/C_mikrokontroler/lpc_board/build/lpceurobot/_compiled/lib/libebb.a(uart.o)
 .debug_aranges
                0x00000000000001e8       0x20 /usr/arm-elf/gcc/4.4.3/bin/../lib/gcc/arm-elf/4.4.3/libgcc.a(_udivsi3.o)
 .debug_aranges
                0x0000000000000208       0x20 /usr/arm-elf/gcc/4.4.3/bin/../lib/gcc/arm-elf/4.4.3/libgcc.a(_divsi3.o)
 .debug_aranges
                0x0000000000000228       0x20 /usr/arm-elf/gcc/4.4.3/bin/../lib/gcc/arm-elf/4.4.3/libgcc.a(_dvmd_tls.o)
 .debug_aranges
                0x0000000000000248       0x20 /usr/arm-elf/gcc/4.4.3/bin/../lib/gcc/arm-elf/4.4.3/../../../../arm-elf/lib/libg.a(lib_a-memcpy.o)
 .debug_aranges
                0x0000000000000268       0x20 /usr/arm-elf/gcc/4.4.3/bin/../lib/gcc/arm-elf/4.4.3/../../../../arm-elf/lib/libg.a(lib_a-memset.o)

.debug_pubnames
                0x0000000000000000      0x659
 *(.debug_pubnames)
 .debug_pubnames
                0x0000000000000000       0x28 /media/DATA/programovani/C_mikrokontroler/lpc_board/build/lpceurobot/_compiled/lib/initarray.o
 .debug_pubnames
                0x0000000000000028       0x2d /media/DATA/programovani/C_mikrokontroler/lpc_board/build/lpceurobot/_compiled/lib/hwinit.o
 .debug_pubnames
                0x0000000000000055       0x2b fsm.o
 .debug_pubnames
                0x0000000000000080       0x5d fsm_vidle.o
 .debug_pubnames
                0x00000000000000dd      0x153 main.o
 .debug_pubnames
                0x0000000000000230       0x65 uar.o
 .debug_pubnames
                0x0000000000000295       0x75 vhn.o
 .debug_pubnames
                0x000000000000030a       0x1c /media/DATA/programovani/C_mikrokontroler/lpc_board/build/lpceurobot/_compiled/lib/libeurobothw.a(error.o)
 .debug_pubnames
                0x0000000000000326       0x71 /media/DATA/programovani/C_mikrokontroler/lpc_board/build/lpceurobot/_compiled/lib/libeurobothw.a(startcfg.o)
 .debug_pubnames
                0x0000000000000397       0x7b /media/DATA/programovani/C_mikrokontroler/lpc_board/build/lpceurobot/_compiled/lib/libcan.a(can.o)
 .debug_pubnames
                0x0000000000000412       0x62 /media/DATA/programovani/C_mikrokontroler/lpc_board/build/lpceurobot/_compiled/lib/libcan.a(can_baud.o)
 .debug_pubnames
                0x0000000000000474       0x37 /media/DATA/programovani/C_mikrokontroler/lpc_board/build/lpceurobot/_compiled/lib/libebb.a(adc.o)
 .debug_pubnames
                0x00000000000004ab       0xda /media/DATA/programovani/C_mikrokontroler/lpc_board/build/lpceurobot/_compiled/lib/libebb.a(engine.o)
 .debug_pubnames
                0x0000000000000585       0x9a /media/DATA/programovani/C_mikrokontroler/lpc_board/build/lpceurobot/_compiled/lib/libebb.a(uart.o)
 .debug_pubnames
                0x000000000000061f       0x1d /usr/arm-elf/gcc/4.4.3/bin/../lib/gcc/arm-elf/4.4.3/../../../../arm-elf/lib/libg.a(lib_a-memcpy.o)
 .debug_pubnames
                0x000000000000063c       0x1d /usr/arm-elf/gcc/4.4.3/bin/../lib/gcc/arm-elf/4.4.3/../../../../arm-elf/lib/libg.a(lib_a-memset.o)

.debug_info     0x0000000000000000     0x2776
 *(.debug_info .gnu.linkonce.wi.*)
 .debug_info    0x0000000000000000       0xce /media/DATA/programovani/C_mikrokontroler/lpc_board/build/lpceurobot/_compiled/lib/crt0.o
 .debug_info    0x00000000000000ce       0xdc /media/DATA/programovani/C_mikrokontroler/lpc_board/build/lpceurobot/_compiled/lib/initarray.o
 .debug_info    0x00000000000001aa      0x187 /media/DATA/programovani/C_mikrokontroler/lpc_board/build/lpceurobot/_compiled/lib/hwinit.o
 .debug_info    0x0000000000000331      0x214 fsm.o
 .debug_info    0x0000000000000545      0x411 fsm_vidle.o
 .debug_info    0x0000000000000956      0x8e2 main.o
 .debug_info    0x0000000000001238      0x133 uar.o
 .debug_info    0x000000000000136b      0x2a0 vhn.o
 .debug_info    0x000000000000160b      0x232 /media/DATA/programovani/C_mikrokontroler/lpc_board/build/lpceurobot/_compiled/lib/libeurobothw.a(error.o)
 .debug_info    0x000000000000183d      0x1e9 /media/DATA/programovani/C_mikrokontroler/lpc_board/build/lpceurobot/_compiled/lib/libeurobothw.a(startcfg.o)
 .debug_info    0x0000000000001a26      0x200 /media/DATA/programovani/C_mikrokontroler/lpc_board/build/lpceurobot/_compiled/lib/libcan.a(can.o)
 .debug_info    0x0000000000001c26      0x23e /media/DATA/programovani/C_mikrokontroler/lpc_board/build/lpceurobot/_compiled/lib/libcan.a(can_baud.o)
 .debug_info    0x0000000000001e64       0xf6 /media/DATA/programovani/C_mikrokontroler/lpc_board/build/lpceurobot/_compiled/lib/libebb.a(adc.o)
 .debug_info    0x0000000000001f5a      0x218 /media/DATA/programovani/C_mikrokontroler/lpc_board/build/lpceurobot/_compiled/lib/libebb.a(engine.o)
 .debug_info    0x0000000000002172      0x235 /media/DATA/programovani/C_mikrokontroler/lpc_board/build/lpceurobot/_compiled/lib/libebb.a(uart.o)
 .debug_info    0x00000000000023a7       0xb0 /usr/arm-elf/gcc/4.4.3/bin/../lib/gcc/arm-elf/4.4.3/libgcc.a(_udivsi3.o)
 .debug_info    0x0000000000002457       0xb0 /usr/arm-elf/gcc/4.4.3/bin/../lib/gcc/arm-elf/4.4.3/libgcc.a(_divsi3.o)
 .debug_info    0x0000000000002507       0xb0 /usr/arm-elf/gcc/4.4.3/bin/../lib/gcc/arm-elf/4.4.3/libgcc.a(_dvmd_tls.o)
 .debug_info    0x00000000000025b7       0xf4 /usr/arm-elf/gcc/4.4.3/bin/../lib/gcc/arm-elf/4.4.3/../../../../arm-elf/lib/libg.a(lib_a-memcpy.o)
 .debug_info    0x00000000000026ab       0xcb /usr/arm-elf/gcc/4.4.3/bin/../lib/gcc/arm-elf/4.4.3/../../../../arm-elf/lib/libg.a(lib_a-memset.o)

.debug_abbrev   0x0000000000000000     0x1143
 *(.debug_abbrev)
 .debug_abbrev  0x0000000000000000       0x12 /media/DATA/programovani/C_mikrokontroler/lpc_board/build/lpceurobot/_compiled/lib/crt0.o
 .debug_abbrev  0x0000000000000012       0xa2 /media/DATA/programovani/C_mikrokontroler/lpc_board/build/lpceurobot/_compiled/lib/initarray.o
 .debug_abbrev  0x00000000000000b4       0xef /media/DATA/programovani/C_mikrokontroler/lpc_board/build/lpceurobot/_compiled/lib/hwinit.o
 .debug_abbrev  0x00000000000001a3       0xd5 fsm.o
 .debug_abbrev  0x0000000000000278      0x1b8 fsm_vidle.o
 .debug_abbrev  0x0000000000000430      0x2c4 main.o
 .debug_abbrev  0x00000000000006f4       0xe9 uar.o
 .debug_abbrev  0x00000000000007dd      0x172 vhn.o
 .debug_abbrev  0x000000000000094f       0xfe /media/DATA/programovani/C_mikrokontroler/lpc_board/build/lpceurobot/_compiled/lib/libeurobothw.a(error.o)
 .debug_abbrev  0x0000000000000a4d      0x116 /media/DATA/programovani/C_mikrokontroler/lpc_board/build/lpceurobot/_compiled/lib/libeurobothw.a(startcfg.o)
 .debug_abbrev  0x0000000000000b63      0x131 /media/DATA/programovani/C_mikrokontroler/lpc_board/build/lpceurobot/_compiled/lib/libcan.a(can.o)
 .debug_abbrev  0x0000000000000c94      0x113 /media/DATA/programovani/C_mikrokontroler/lpc_board/build/lpceurobot/_compiled/lib/libcan.a(can_baud.o)
 .debug_abbrev  0x0000000000000da7       0xb6 /media/DATA/programovani/C_mikrokontroler/lpc_board/build/lpceurobot/_compiled/lib/libebb.a(adc.o)
 .debug_abbrev  0x0000000000000e5d       0xcf /media/DATA/programovani/C_mikrokontroler/lpc_board/build/lpceurobot/_compiled/lib/libebb.a(engine.o)
 .debug_abbrev  0x0000000000000f2c       0xc1 /media/DATA/programovani/C_mikrokontroler/lpc_board/build/lpceurobot/_compiled/lib/libebb.a(uart.o)
 .debug_abbrev  0x0000000000000fed       0x14 /usr/arm-elf/gcc/4.4.3/bin/../lib/gcc/arm-elf/4.4.3/libgcc.a(_udivsi3.o)
 .debug_abbrev  0x0000000000001001       0x14 /usr/arm-elf/gcc/4.4.3/bin/../lib/gcc/arm-elf/4.4.3/libgcc.a(_divsi3.o)
 .debug_abbrev  0x0000000000001015       0x14 /usr/arm-elf/gcc/4.4.3/bin/../lib/gcc/arm-elf/4.4.3/libgcc.a(_dvmd_tls.o)
 .debug_abbrev  0x0000000000001029       0x97 /usr/arm-elf/gcc/4.4.3/bin/../lib/gcc/arm-elf/4.4.3/../../../../arm-elf/lib/libg.a(lib_a-memcpy.o)
 .debug_abbrev  0x00000000000010c0       0x83 /usr/arm-elf/gcc/4.4.3/bin/../lib/gcc/arm-elf/4.4.3/../../../../arm-elf/lib/libg.a(lib_a-memset.o)

.debug_line     0x0000000000000000     0x1778
 *(.debug_line)
 .debug_line    0x0000000000000000       0xd9 /media/DATA/programovani/C_mikrokontroler/lpc_board/build/lpceurobot/_compiled/lib/crt0.o
 .debug_line    0x00000000000000d9       0xd5 /media/DATA/programovani/C_mikrokontroler/lpc_board/build/lpceurobot/_compiled/lib/initarray.o
 .debug_line    0x00000000000001ae      0x11a /media/DATA/programovani/C_mikrokontroler/lpc_board/build/lpceurobot/_compiled/lib/hwinit.o
 .debug_line    0x00000000000002c8       0xf9 fsm.o
 .debug_line    0x00000000000003c1      0x18d fsm_vidle.o
 .debug_line    0x000000000000054e      0x363 main.o
 .debug_line    0x00000000000008b1       0xb8 uar.o
 .debug_line    0x0000000000000969      0x1be vhn.o
 .debug_line    0x0000000000000b27      0x113 /media/DATA/programovani/C_mikrokontroler/lpc_board/build/lpceurobot/_compiled/lib/libeurobothw.a(error.o)
 .debug_line    0x0000000000000c3a      0x12c /media/DATA/programovani/C_mikrokontroler/lpc_board/build/lpceurobot/_compiled/lib/libeurobothw.a(startcfg.o)
 .debug_line    0x0000000000000d66      0x184 /media/DATA/programovani/C_mikrokontroler/lpc_board/build/lpceurobot/_compiled/lib/libcan.a(can.o)
 .debug_line    0x0000000000000eea      0x1aa /media/DATA/programovani/C_mikrokontroler/lpc_board/build/lpceurobot/_compiled/lib/libcan.a(can_baud.o)
 .debug_line    0x0000000000001094       0x96 /media/DATA/programovani/C_mikrokontroler/lpc_board/build/lpceurobot/_compiled/lib/libebb.a(adc.o)
 .debug_line    0x000000000000112a      0x168 /media/DATA/programovani/C_mikrokontroler/lpc_board/build/lpceurobot/_compiled/lib/libebb.a(engine.o)
 .debug_line    0x0000000000001292      0x10c /media/DATA/programovani/C_mikrokontroler/lpc_board/build/lpceurobot/_compiled/lib/libebb.a(uart.o)
 .debug_line    0x000000000000139e       0x9e /usr/arm-elf/gcc/4.4.3/bin/../lib/gcc/arm-elf/4.4.3/libgcc.a(_udivsi3.o)
 .debug_line    0x000000000000143c       0xaa /usr/arm-elf/gcc/4.4.3/bin/../lib/gcc/arm-elf/4.4.3/libgcc.a(_divsi3.o)
 .debug_line    0x00000000000014e6       0x72 /usr/arm-elf/gcc/4.4.3/bin/../lib/gcc/arm-elf/4.4.3/libgcc.a(_dvmd_tls.o)
 .debug_line    0x0000000000001558      0x110 /usr/arm-elf/gcc/4.4.3/bin/../lib/gcc/arm-elf/4.4.3/../../../../arm-elf/lib/libg.a(lib_a-memcpy.o)
 .debug_line    0x0000000000001668      0x110 /usr/arm-elf/gcc/4.4.3/bin/../lib/gcc/arm-elf/4.4.3/../../../../arm-elf/lib/libg.a(lib_a-memset.o)

.debug_frame    0x0000000000000000      0x69c
 *(.debug_frame)
 .debug_frame   0x0000000000000000       0x2c /media/DATA/programovani/C_mikrokontroler/lpc_board/build/lpceurobot/_compiled/lib/initarray.o
 .debug_frame   0x000000000000002c       0x28 /media/DATA/programovani/C_mikrokontroler/lpc_board/build/lpceurobot/_compiled/lib/hwinit.o
 .debug_frame   0x0000000000000054       0x40 fsm.o
 .debug_frame   0x0000000000000094       0x8c fsm_vidle.o
 .debug_frame   0x0000000000000120      0x15c main.o
 .debug_frame   0x000000000000027c       0x88 uar.o
 .debug_frame   0x0000000000000304       0x4c vhn.o
 .debug_frame   0x0000000000000350       0x20 /media/DATA/programovani/C_mikrokontroler/lpc_board/build/lpceurobot/_compiled/lib/libeurobothw.a(error.o)
 .debug_frame   0x0000000000000370       0x90 /media/DATA/programovani/C_mikrokontroler/lpc_board/build/lpceurobot/_compiled/lib/libeurobothw.a(startcfg.o)
 .debug_frame   0x0000000000000400       0x74 /media/DATA/programovani/C_mikrokontroler/lpc_board/build/lpceurobot/_compiled/lib/libcan.a(can.o)
 .debug_frame   0x0000000000000474       0x38 /media/DATA/programovani/C_mikrokontroler/lpc_board/build/lpceurobot/_compiled/lib/libcan.a(can_baud.o)
 .debug_frame   0x00000000000004ac       0x40 /media/DATA/programovani/C_mikrokontroler/lpc_board/build/lpceurobot/_compiled/lib/libebb.a(adc.o)
 .debug_frame   0x00000000000004ec       0x90 /media/DATA/programovani/C_mikrokontroler/lpc_board/build/lpceurobot/_compiled/lib/libebb.a(engine.o)
 .debug_frame   0x000000000000057c       0x90 /media/DATA/programovani/C_mikrokontroler/lpc_board/build/lpceurobot/_compiled/lib/libebb.a(uart.o)
 .debug_frame   0x000000000000060c       0x28 /usr/arm-elf/gcc/4.4.3/bin/../lib/gcc/arm-elf/4.4.3/libgcc.a(_udivsi3.o)
 .debug_frame   0x0000000000000634       0x28 /usr/arm-elf/gcc/4.4.3/bin/../lib/gcc/arm-elf/4.4.3/libgcc.a(_divsi3.o)
 .debug_frame   0x000000000000065c       0x20 /usr/arm-elf/gcc/4.4.3/bin/../lib/gcc/arm-elf/4.4.3/../../../../arm-elf/lib/libg.a(lib_a-memcpy.o)
 .debug_frame   0x000000000000067c       0x20 /usr/arm-elf/gcc/4.4.3/bin/../lib/gcc/arm-elf/4.4.3/../../../../arm-elf/lib/libg.a(lib_a-memset.o)

.debug_str      0x0000000000000000      0xb99
 *(.debug_str)
 .debug_str     0x0000000000000000       0xf9 /media/DATA/programovani/C_mikrokontroler/lpc_board/build/lpceurobot/_compiled/lib/initarray.o
                                        0x132 (size before relaxing)
 .debug_str     0x00000000000000f9       0xba /media/DATA/programovani/C_mikrokontroler/lpc_board/build/lpceurobot/_compiled/lib/hwinit.o
                                        0x15c (size before relaxing)
 .debug_str     0x00000000000001b3      0x14d fsm.o
                                        0x1da (size before relaxing)
 .debug_str     0x0000000000000300       0xf0 fsm_vidle.o
                                        0x277 (size before relaxing)
 .debug_str     0x00000000000003f0      0x1c0 main.o
                                        0x404 (size before relaxing)
 .debug_str     0x00000000000005b0       0x93 uar.o
                                         0xa9 (size before relaxing)
 .debug_str     0x0000000000000643       0x71 vhn.o
                                        0x1b9 (size before relaxing)
 .debug_str     0x00000000000006b4       0x61 /media/DATA/programovani/C_mikrokontroler/lpc_board/build/lpceurobot/_compiled/lib/libeurobothw.a(error.o)
                                         0xe5 (size before relaxing)
 .debug_str     0x0000000000000715       0xae /media/DATA/programovani/C_mikrokontroler/lpc_board/build/lpceurobot/_compiled/lib/libeurobothw.a(startcfg.o)
                                        0x14d (size before relaxing)
 .debug_str     0x00000000000007c3       0xa2 /media/DATA/programovani/C_mikrokontroler/lpc_board/build/lpceurobot/_compiled/lib/libcan.a(can.o)
                                        0x18d (size before relaxing)
 .debug_str     0x0000000000000865       0x98 /media/DATA/programovani/C_mikrokontroler/lpc_board/build/lpceurobot/_compiled/lib/libcan.a(can_baud.o)
                                        0x1b1 (size before relaxing)
 .debug_str     0x00000000000008fd       0x51 /media/DATA/programovani/C_mikrokontroler/lpc_board/build/lpceurobot/_compiled/lib/libebb.a(adc.o)
                                         0xfa (size before relaxing)
 .debug_str     0x000000000000094e       0xb2 /media/DATA/programovani/C_mikrokontroler/lpc_board/build/lpceurobot/_compiled/lib/libebb.a(engine.o)
                                        0x160 (size before relaxing)
 .debug_str     0x0000000000000a00       0xab /media/DATA/programovani/C_mikrokontroler/lpc_board/build/lpceurobot/_compiled/lib/libebb.a(uart.o)
                                        0x160 (size before relaxing)
 .debug_str     0x0000000000000aab       0xaa /usr/arm-elf/gcc/4.4.3/bin/../lib/gcc/arm-elf/4.4.3/../../../../arm-elf/lib/libg.a(lib_a-memcpy.o)
                                        0x146 (size before relaxing)
 .debug_str     0x0000000000000b55       0x44 /usr/arm-elf/gcc/4.4.3/bin/../lib/gcc/arm-elf/4.4.3/../../../../arm-elf/lib/libg.a(lib_a-memset.o)
                                        0x132 (size before relaxing)

.debug_loc      0x0000000000000000      0xc1d
 *(.debug_loc)
 .debug_loc     0x0000000000000000       0x1f /media/DATA/programovani/C_mikrokontroler/lpc_board/build/lpceurobot/_compiled/lib/initarray.o
 .debug_loc     0x000000000000001f       0x1f /media/DATA/programovani/C_mikrokontroler/lpc_board/build/lpceurobot/_compiled/lib/hwinit.o
 .debug_loc     0x000000000000003e       0x8d fsm.o
 .debug_loc     0x00000000000000cb      0x1e3 fsm_vidle.o
 .debug_loc     0x00000000000002ae      0x2c1 main.o
 .debug_loc     0x000000000000056f       0xf5 uar.o
 .debug_loc     0x0000000000000664       0xa5 vhn.o
 .debug_loc     0x0000000000000709       0x13 /media/DATA/programovani/C_mikrokontroler/lpc_board/build/lpceurobot/_compiled/lib/libeurobothw.a(error.o)
 .debug_loc     0x000000000000071c      0x11e /media/DATA/programovani/C_mikrokontroler/lpc_board/build/lpceurobot/_compiled/lib/libeurobothw.a(startcfg.o)
 .debug_loc     0x000000000000083a       0xac /media/DATA/programovani/C_mikrokontroler/lpc_board/build/lpceurobot/_compiled/lib/libcan.a(can.o)
 .debug_loc     0x00000000000008e6       0xfe /media/DATA/programovani/C_mikrokontroler/lpc_board/build/lpceurobot/_compiled/lib/libcan.a(can_baud.o)
 .debug_loc     0x00000000000009e4       0x71 /media/DATA/programovani/C_mikrokontroler/lpc_board/build/lpceurobot/_compiled/lib/libebb.a(adc.o)
 .debug_loc     0x0000000000000a55       0x78 /media/DATA/programovani/C_mikrokontroler/lpc_board/build/lpceurobot/_compiled/lib/libebb.a(engine.o)
 .debug_loc     0x0000000000000acd      0x150 /media/DATA/programovani/C_mikrokontroler/lpc_board/build/lpceurobot/_compiled/lib/libebb.a(uart.o)

.debug_macinfo
 *(.debug_macinfo)

.debug_weaknames
 *(.debug_weaknames)

.debug_funcnames
 *(.debug_funcnames)

.debug_typenames
 *(.debug_typenames)

.debug_varnames
 *(.debug_varnames)
LOAD fsm.o
LOAD fsm_vidle.o
LOAD main.o
LOAD uar.o
LOAD vhn.o
LOAD /media/DATA/programovani/C_mikrokontroler/lpc_board/build/lpceurobot/_compiled/lib/libeurobothw.a
LOAD /media/DATA/programovani/C_mikrokontroler/lpc_board/build/lpceurobot/_compiled/lib/libcan.a
LOAD /media/DATA/programovani/C_mikrokontroler/lpc_board/build/lpceurobot/_compiled/lib/libebb.a
START GROUP
LOAD /usr/arm-elf/gcc/4.4.3/bin/../lib/gcc/arm-elf/4.4.3/libgcc.a
LOAD /usr/arm-elf/gcc/4.4.3/bin/../lib/gcc/arm-elf/4.4.3/../../../../arm-elf/lib/libg.a
LOAD /usr/arm-elf/gcc/4.4.3/bin/../lib/gcc/arm-elf/4.4.3/../../../../arm-elf/lib/libc.a
END GROUP
OUTPUT(/media/DATA/programovani/C_mikrokontroler/lpc_board/build/lpceurobot/_compiled/bin/eb_vidle-flash elf32-littlearm)

.debug_ranges   0x0000000000000000      0x3c8
 .debug_ranges  0x0000000000000000       0x20 /media/DATA/programovani/C_mikrokontroler/lpc_board/build/lpceurobot/_compiled/lib/crt0.o
 .debug_ranges  0x0000000000000020       0x68 /media/DATA/programovani/C_mikrokontroler/lpc_board/build/lpceurobot/_compiled/lib/hwinit.o
 .debug_ranges  0x0000000000000088      0x1e0 main.o
 .debug_ranges  0x0000000000000268       0x30 vhn.o
 .debug_ranges  0x0000000000000298       0xb0 /media/DATA/programovani/C_mikrokontroler/lpc_board/build/lpceurobot/_compiled/lib/libeurobothw.a(error.o)
 .debug_ranges  0x0000000000000348       0x38 /media/DATA/programovani/C_mikrokontroler/lpc_board/build/lpceurobot/_compiled/lib/libeurobothw.a(startcfg.o)
 .debug_ranges  0x0000000000000380       0x18 /media/DATA/programovani/C_mikrokontroler/lpc_board/build/lpceurobot/_compiled/lib/libcan.a(can_baud.o)
 .debug_ranges  0x0000000000000398       0x30 /media/DATA/programovani/C_mikrokontroler/lpc_board/build/lpceurobot/_compiled/lib/libebb.a(engine.o)
